target datalayout = "e-m:e-p270:32:32-p271:32:32-p272:64:64-i64:64-i128:128-f80:128-n8:16:32:64-S128"
target triple = "x86_64-pc-linux-gnu"

%struct.scalar_config = type { ptr, ptr, i32 }

@the_repository = external global ptr, align 8
@.str.40 = private unnamed_addr constant [9 x i8] c"scalar.c\00", align 1
@.str.117 = private unnamed_addr constant [7 x i8] c"scalar\00", align 1
@.str.118 = private unnamed_addr constant [8 x i8] c"created\00", align 1
@.str.121 = private unnamed_addr constant [7 x i8] c"exists\00", align 1

; Function Attrs: inlinehint nounwind uwtable
define internal i32 @git_config_set_gently(ptr noundef %0, ptr noundef %1) #5 {
  %3 = alloca ptr, align 8
  %4 = alloca ptr, align 8
  store ptr %0, ptr %3, align 8, !tbaa !4
  store ptr %1, ptr %4, align 8, !tbaa !4
  %5 = load ptr, ptr @the_repository, align 8, !tbaa !43
  %6 = load ptr, ptr %3, align 8, !tbaa !4
  %7 = load ptr, ptr %4, align 8, !tbaa !4
  %8 = call i32 @repo_config_set_gently(ptr noundef %5, ptr noundef %6, ptr noundef %7)
  ret i32 %8
}

; Function Attrs: inlinehint nounwind uwtable
define internal i32 @git_config_get_string(ptr noundef %0, ptr noundef %1) #5 {
  %3 = alloca ptr, align 8
  %4 = alloca ptr, align 8
  store ptr %0, ptr %3, align 8, !tbaa !4
  store ptr %1, ptr %4, align 8, !tbaa !13
  %5 = load ptr, ptr @the_repository, align 8, !tbaa !43
  %6 = load ptr, ptr %3, align 8, !tbaa !4
  %7 = load ptr, ptr %4, align 8, !tbaa !13
  %8 = call i32 @repo_config_get_string(ptr noundef %5, ptr noundef %6, ptr noundef %7)
  ret i32 %8
}

; Function Attrs: nounwind uwtable
define internal i32 @set_scalar_config(ptr noundef %0, i32 noundef %1) #0 {
  %3 = alloca ptr, align 8
  %4 = alloca i32, align 4
  %5 = alloca ptr, align 8
  %6 = alloca i32, align 4
  store ptr %0, ptr %3, align 8, !tbaa !89
  store i32 %1, ptr %4, align 4, !tbaa !11
  call void @llvm.lifetime.start.p0(i64 8, ptr %5) #12
  store ptr null, ptr %5, align 8, !tbaa !4
  call void @llvm.lifetime.start.p0(i64 4, ptr %6) #12
  %7 = load i32, ptr %4, align 4, !tbaa !11
  %8 = icmp ne i32 %7, 0
  br i1 %8, label %9, label %14

9:                                                ; preds = %2
  %10 = load ptr, ptr %3, align 8, !tbaa !89
  %11 = getelementptr inbounds nuw %struct.scalar_config, ptr %10, i32 0, i32 2
  %12 = load i32, ptr %11, align 8, !tbaa !91
  %13 = icmp ne i32 %12, 0
  br i1 %13, label %20, label %14

14:                                               ; preds = %9, %2
  %15 = load ptr, ptr %3, align 8, !tbaa !89
  %16 = getelementptr inbounds nuw %struct.scalar_config, ptr %15, i32 0, i32 0
  %17 = load ptr, ptr %16, align 8, !tbaa !82
  %18 = call i32 @git_config_get_string(ptr noundef %17, ptr noundef %5)
  %19 = icmp ne i32 %18, 0
  br i1 %19, label %20, label %32

20:                                               ; preds = %14, %9
  %21 = load ptr, ptr @the_repository, align 8, !tbaa !43
  %22 = load ptr, ptr %3, align 8, !tbaa !89
  %23 = getelementptr inbounds nuw %struct.scalar_config, ptr %22, i32 0, i32 0
  %24 = load ptr, ptr %23, align 8, !tbaa !82
  call void @trace2_data_string_fl(ptr noundef @.str.40, i32 noundef 105, ptr noundef @.str.117, ptr noundef %21, ptr noundef %24, ptr noundef @.str.118)
  %25 = load ptr, ptr %3, align 8, !tbaa !89
  %26 = getelementptr inbounds nuw %struct.scalar_config, ptr %25, i32 0, i32 0
  %27 = load ptr, ptr %26, align 8, !tbaa !82
  %28 = load ptr, ptr %3, align 8, !tbaa !89
  %29 = getelementptr inbounds nuw %struct.scalar_config, ptr %28, i32 0, i32 1
  %30 = load ptr, ptr %29, align 8, !tbaa !84
  %31 = call i32 @git_config_set_gently(ptr noundef %27, ptr noundef %30)
  store i32 %31, ptr %6, align 4, !tbaa !11
  br label %37

32:                                               ; preds = %14
  %33 = load ptr, ptr @the_repository, align 8, !tbaa !43
  %34 = load ptr, ptr %3, align 8, !tbaa !89
  %35 = getelementptr inbounds nuw %struct.scalar_config, ptr %34, i32 0, i32 0
  %36 = load ptr, ptr %35, align 8, !tbaa !82
  call void @trace2_data_string_fl(ptr noundef @.str.40, i32 noundef 108, ptr noundef @.str.117, ptr noundef %33, ptr noundef %36, ptr noundef @.str.121)
  store i32 0, ptr %6, align 4, !tbaa !11
  br label %37

37:                                               ; preds = %32, %20
  %38 = load ptr, ptr %5, align 8, !tbaa !4
  call void @free(ptr noundef %38) #12
  %39 = load i32, ptr %6, align 4, !tbaa !11
  call void @llvm.lifetime.end.p0(i64 4, ptr %6) #12
  call void @llvm.lifetime.end.p0(i64 8, ptr %5) #12
  ret i32 %39
}