; Function Attrs: nounwind uwtable
define internal fastcc i32 @set_scalar_config(ptr noundef nonnull readonly captures(none) %0, i32 noundef range(i32 0, 2) %1) unnamed_addr #2 {
  %3 = alloca ptr, align 8
  call void @llvm.lifetime.start.p0(i64 8, ptr nonnull %3) #18
  store ptr null, ptr %3, align 8, !tbaa !4
  %.not = icmp eq i32 %1, 0
  br i1 %.not, label %7, label %4

4:                                                ; preds = %2
  %5 = getelementptr inbounds nuw i8, ptr %0, i64 16
  %6 = load i32, ptr %5, align 8, !tbaa !78
  %.not7 = icmp eq i32 %6, 0
  br i1 %.not7, label %7, label %11

7:                                                ; preds = %4, %2
  %8 = load ptr, ptr %0, align 8, !tbaa !74
  %9 = load ptr, ptr @the_repository, align 8, !tbaa !36
  %10 = call i32 @repo_config_get_string(ptr noundef %9, ptr noundef %8, ptr noundef nonnull %3) #18
  %.not8 = icmp eq i32 %10, 0
  br i1 %.not8, label %19, label %11

11:                                               ; preds = %7, %4
  %12 = load ptr, ptr @the_repository, align 8, !tbaa !36
  %13 = load ptr, ptr %0, align 8, !tbaa !74
  call void @trace2_data_string_fl(ptr noundef nonnull @.str.40, i32 noundef 105, ptr noundef nonnull @.str.117, ptr noundef %12, ptr noundef %13, ptr noundef nonnull @.str.118) #18
  %14 = load ptr, ptr %0, align 8, !tbaa !74
  %15 = getelementptr inbounds nuw i8, ptr %0, i64 8
  %16 = load ptr, ptr %15, align 8, !tbaa !76
  %17 = load ptr, ptr @the_repository, align 8, !tbaa !36
  %18 = call i32 @repo_config_set_gently(ptr noundef %17, ptr noundef %14, ptr noundef %16) #18
  br label %22

19:                                               ; preds = %7
  %20 = load ptr, ptr @the_repository, align 8, !tbaa !36
  %21 = load ptr, ptr %0, align 8, !tbaa !74
  call void @trace2_data_string_fl(ptr noundef nonnull @.str.40, i32 noundef 108, ptr noundef nonnull @.str.117, ptr noundef %20, ptr noundef %21, ptr noundef nonnull @.str.121) #18
  br label %22

22:                                               ; preds = %19, %11
  %.0 = phi i32 [ %18, %11 ], [ 0, %19 ]
  %23 = load ptr, ptr %3, align 8, !tbaa !4
  call void @free(ptr noundef %23) #18
  call void @llvm.lifetime.end.p0(i64 8, ptr nonnull %3) #18
  ret i32 %.0
}